target datalayout = "e-m:e-p270:32:32-p271:32:32-p272:64:64-i64:64-i128:128-f80:128-n8:16:32:64-S128"
target triple = "x86_64-pc-linux-gnu"

%struct._generic_one_id_string = type { i32, ptr }

; Function Attrs: null_pointer_is_valid sspstrong uwtable
define internal ptr @copy_generic_one_id_string_cb(ptr noundef %0, ptr noundef %1, i64 noundef %2) #0 {
  %4 = alloca ptr, align 8
  %5 = alloca ptr, align 8
  %6 = alloca i64, align 8
  %7 = alloca ptr, align 8
  %8 = alloca ptr, align 8
  store ptr %0, ptr %4, align 8
  store ptr %1, ptr %5, align 8
  store i64 %2, ptr %6, align 8
  call void @llvm.lifetime.start.p0(i64 8, ptr %7) #14
  %9 = load ptr, ptr %4, align 8
  store ptr %9, ptr %7, align 8
  call void @llvm.lifetime.start.p0(i64 8, ptr %8) #14
  %10 = load ptr, ptr %5, align 8
  store ptr %10, ptr %8, align 8
  %11 = load ptr, ptr %8, align 8
  %12 = getelementptr inbounds nuw %struct._generic_one_id_string, ptr %11, i32 0, i32 1
  %13 = load ptr, ptr %12, align 8
  %14 = icmp eq ptr %13, null
  br i1 %14, label %15, label %18

15:                                               ; preds = %3
  %16 = load ptr, ptr %7, align 8
  %17 = getelementptr inbounds nuw %struct._generic_one_id_string, ptr %16, i32 0, i32 1
  store ptr null, ptr %17, align 8
  br label %25

18:                                               ; preds = %3
  %19 = load ptr, ptr %8, align 8
  %20 = getelementptr inbounds nuw %struct._generic_one_id_string, ptr %19, i32 0, i32 1
  %21 = load ptr, ptr %20, align 8
  %22 = call noalias ptr @g_strdup(ptr noundef %21)
  %23 = load ptr, ptr %7, align 8
  %24 = getelementptr inbounds nuw %struct._generic_one_id_string, ptr %23, i32 0, i32 1
  store ptr %22, ptr %24, align 8
  br label %25

25:                                               ; preds = %18, %15
  %26 = load ptr, ptr %8, align 8
  %27 = getelementptr inbounds nuw %struct._generic_one_id_string, ptr %26, i32 0, i32 0
  %28 = load i32, ptr %27, align 8
  %29 = load ptr, ptr %7, align 8
  %30 = getelementptr inbounds nuw %struct._generic_one_id_string, ptr %29, i32 0, i32 0
  store i32 %28, ptr %30, align 8
  %31 = load ptr, ptr %7, align 8
  call void @llvm.lifetime.end.p0(i64 8, ptr %8) #14
  call void @llvm.lifetime.end.p0(i64 8, ptr %7) #14
  ret ptr %31
}