; Function Attrs: null_pointer_is_valid sspstrong uwtable
define internal noundef ptr @copy_generic_one_id_string_cb(ptr noundef returned writeonly captures(ret: address, provenance) initializes((0, 4), (8, 16)) %0, ptr noundef readonly captures(none) %1, i64 %2) #0 {
  %4 = getelementptr inbounds nuw i8, ptr %1, i64 8
  %5 = load ptr, ptr %4, align 8
  %6 = icmp eq ptr %5, null
  br i1 %6, label %9, label %7

7:                                                ; preds = %3
  %8 = tail call noalias ptr @g_strdup(ptr noundef nonnull %5)
  br label %9

9:                                                ; preds = %3, %7
  %.sink = phi ptr [ %8, %7 ], [ null, %3 ]
  %10 = getelementptr inbounds nuw i8, ptr %0, i64 8
  store ptr %.sink, ptr %10, align 8
  %11 = load i32, ptr %1, align 8
  store i32 %11, ptr %0, align 8
  ret ptr %0
}